; Function Attrs: mustprogress nofree norecurse nosync nounwind willreturn memory(argmem: readwrite) uwtable
define void @_ZN12b2MouseJoint11ShiftOriginERK6b2Vec2(ptr nocapture noundef nonnull align 8 dereferenceable(228) %this, ptr nocapture noundef nonnull readonly align 4 dereferenceable(8) %newOrigin) unnamed_addr #11 align 2 {
entry:
  %m_targetA = getelementptr inbounds i8, ptr %this, i64 136
  %0 = load float, ptr %newOrigin, align 4
  %1 = load float, ptr %m_targetA, align 8
  %sub.i = fsub float %1, %0
  store float %sub.i, ptr %m_targetA, align 8
  %y.i = getelementptr inbounds i8, ptr %newOrigin, i64 4
  %2 = load float, ptr %y.i, align 4
  %y3.i = getelementptr inbounds i8, ptr %this, i64 140
  %3 = load float, ptr %y3.i, align 4
  %sub4.i = fsub float %3, %2
  store float %sub4.i, ptr %y3.i, align 4
  ret void
}